; Function Attrs: nounwind uwtable
define internal void @_EndData(ptr noundef %0, ptr readnone captures(none) %1) #0 {
  %3 = getelementptr inbounds nuw i8, ptr %0, i64 592
  %4 = load ptr, ptr %3, align 8
  %5 = load ptr, ptr %4, align 8
  tail call void @EndCompressor(ptr noundef %0, ptr noundef %5) #7
  store ptr null, ptr %4, align 8
  %6 = tail call i64 @WriteInt(ptr noundef %0, i32 noundef 0) #7
  ret void
}